target datalayout = "e-m:e-p270:32:32-p271:32:32-p272:64:64-i64:64-i128:128-f80:128-n8:16:32:64-S128"
target triple = "x86_64-pc-linux-gnu"

%struct.AVFilterContext = type { ptr, ptr, ptr, ptr, ptr, i32, ptr, ptr, i32, ptr, ptr, i32, i32, ptr, ptr, ptr, ptr, i32, ptr, i32, i32 }
%struct.MergePlanesContext = type { ptr, i64, i32, i32, i32, [4 x i32], [4 x i32], [4 x %struct.Mapping], [4 x ptr], ptr, %struct.FFFrameSync }
%struct.Mapping = type { i32, i32 }
%struct.FFFrameSync = type { ptr, ptr, i32, %struct.AVRational, i64, ptr, ptr, i32, i32, i8, i8, ptr, i32, i32, i32, i32 }
%struct.AVRational = type { i32, i32 }
%struct.AVPixFmtDescriptor = type { ptr, i8, i8, i8, i64, [4 x %struct.AVComponentDescriptor], ptr }
%struct.AVComponentDescriptor = type { i32, i32, i32, i32, i32 }
%struct.AVFilterFormatsConfig = type { ptr, ptr, ptr, ptr, ptr }

; Function Attrs: nounwind uwtable
define internal i32 @query_formats(ptr noundef %0, ptr noundef %1, ptr noundef %2) #1 {
  %4 = alloca i32, align 4
  %5 = alloca ptr, align 8
  %6 = alloca ptr, align 8
  %7 = alloca ptr, align 8
  %8 = alloca ptr, align 8
  %9 = alloca ptr, align 8
  %10 = alloca i32, align 4
  %11 = alloca i32, align 4
  %12 = alloca ptr, align 8
  %13 = alloca i32, align 4
  store ptr %0, ptr %5, align 8, !tbaa !4
  store ptr %1, ptr %6, align 8, !tbaa !49
  store ptr %2, ptr %7, align 8, !tbaa !49
  call void @llvm.lifetime.start.p0(i64 8, ptr %8) #10
  %14 = load ptr, ptr %5, align 8, !tbaa !4
  %15 = getelementptr inbounds nuw %struct.AVFilterContext, ptr %14, i32 0, i32 9
  %16 = load ptr, ptr %15, align 8, !tbaa !9
  store ptr %16, ptr %8, align 8, !tbaa !22
  call void @llvm.lifetime.start.p0(i64 8, ptr %9) #10
  store ptr null, ptr %9, align 8, !tbaa !51
  call void @llvm.lifetime.start.p0(i64 4, ptr %10) #10
  call void @llvm.lifetime.start.p0(i64 4, ptr %11) #10
  store i32 0, ptr %10, align 4, !tbaa !38
  br label %17

17:                                               ; preds = %75, %3
  %18 = load i32, ptr %10, align 4, !tbaa !38
  %19 = call ptr @av_pix_fmt_desc_get(i32 noundef %18)
  %20 = icmp ne ptr %19, null
  br i1 %20, label %21, label %78

21:                                               ; preds = %17
  call void @llvm.lifetime.start.p0(i64 8, ptr %12) #10
  %22 = load i32, ptr %10, align 4, !tbaa !38
  %23 = call ptr @av_pix_fmt_desc_get(i32 noundef %22)
  store ptr %23, ptr %12, align 8, !tbaa !53
  %24 = load ptr, ptr %12, align 8, !tbaa !53
  %25 = getelementptr inbounds nuw %struct.AVPixFmtDescriptor, ptr %24, i32 0, i32 5
  %26 = getelementptr inbounds [4 x %struct.AVComponentDescriptor], ptr %25, i64 0, i64 0
  %27 = getelementptr inbounds nuw %struct.AVComponentDescriptor, ptr %26, i32 0, i32 4
  %28 = load i32, ptr %27, align 8, !tbaa !54
  %29 = load ptr, ptr %8, align 8, !tbaa !22
  %30 = getelementptr inbounds nuw %struct.MergePlanesContext, ptr %29, i32 0, i32 9
  %31 = load ptr, ptr %30, align 8, !tbaa !33
  %32 = getelementptr inbounds nuw %struct.AVPixFmtDescriptor, ptr %31, i32 0, i32 5
  %33 = getelementptr inbounds [4 x %struct.AVComponentDescriptor], ptr %32, i64 0, i64 0
  %34 = getelementptr inbounds nuw %struct.AVComponentDescriptor, ptr %33, i32 0, i32 4
  %35 = load i32, ptr %34, align 8, !tbaa !54
  %36 = icmp eq i32 %28, %35
  br i1 %36, label %37, label %71

37:                                               ; preds = %21
  %38 = load ptr, ptr %12, align 8, !tbaa !53
  %39 = getelementptr inbounds nuw %struct.AVPixFmtDescriptor, ptr %38, i32 0, i32 5
  %40 = getelementptr inbounds [4 x %struct.AVComponentDescriptor], ptr %39, i64 0, i64 0
  %41 = getelementptr inbounds nuw %struct.AVComponentDescriptor, ptr %40, i32 0, i32 4
  %42 = load i32, ptr %41, align 8, !tbaa !54
  %43 = icmp sle i32 %42, 8
  br i1 %43, label %56, label %44

44:                                               ; preds = %37
  %45 = load ptr, ptr %12, align 8, !tbaa !53
  %46 = getelementptr inbounds nuw %struct.AVPixFmtDescriptor, ptr %45, i32 0, i32 4
  %47 = load i64, ptr %46, align 8, !tbaa !34
  %48 = and i64 %47, 1
  %49 = load ptr, ptr %8, align 8, !tbaa !22
  %50 = getelementptr inbounds nuw %struct.MergePlanesContext, ptr %49, i32 0, i32 9
  %51 = load ptr, ptr %50, align 8, !tbaa !33
  %52 = getelementptr inbounds nuw %struct.AVPixFmtDescriptor, ptr %51, i32 0, i32 4
  %53 = load i64, ptr %52, align 8, !tbaa !34
  %54 = and i64 %53, 1
  %55 = icmp eq i64 %48, %54
  br i1 %55, label %56, label %71

56:                                               ; preds = %44, %37
  %57 = load i32, ptr %10, align 4, !tbaa !38
  %58 = call i32 @av_pix_fmt_count_planes(i32 noundef %57)
  %59 = load ptr, ptr %12, align 8, !tbaa !53
  %60 = getelementptr inbounds nuw %struct.AVPixFmtDescriptor, ptr %59, i32 0, i32 1
  %61 = load i8, ptr %60, align 8, !tbaa !36
  %62 = zext i8 %61 to i32
  %63 = icmp eq i32 %58, %62
  br i1 %63, label %64, label %71

64:                                               ; preds = %56
  %65 = load i32, ptr %10, align 4, !tbaa !38
  %66 = sext i32 %65 to i64
  %67 = call i32 @ff_add_format(ptr noundef %9, i64 noundef %66)
  store i32 %67, ptr %11, align 4, !tbaa !38
  %68 = icmp slt i32 %67, 0
  br i1 %68, label %69, label %71

69:                                               ; preds = %64
  %70 = load i32, ptr %11, align 4, !tbaa !38
  store i32 %70, ptr %4, align 4
  store i32 1, ptr %13, align 4
  br label %72

71:                                               ; preds = %64, %56, %44, %21
  store i32 0, ptr %13, align 4
  br label %72

72:                                               ; preds = %71, %69
  call void @llvm.lifetime.end.p0(i64 8, ptr %12) #10
  %73 = load i32, ptr %13, align 4
  switch i32 %73, label %119 [
    i32 0, label %74
  ]

74:                                               ; preds = %72
  br label %75

75:                                               ; preds = %74
  %76 = load i32, ptr %10, align 4, !tbaa !38
  %77 = add nsw i32 %76, 1
  store i32 %77, ptr %10, align 4, !tbaa !38
  br label %17, !llvm.loop !56

78:                                               ; preds = %17
  store i32 0, ptr %10, align 4, !tbaa !38
  br label %79

79:                                               ; preds = %98, %78
  %80 = load i32, ptr %10, align 4, !tbaa !38
  %81 = load ptr, ptr %8, align 8, !tbaa !22
  %82 = getelementptr inbounds nuw %struct.MergePlanesContext, ptr %81, i32 0, i32 3
  %83 = load i32, ptr %82, align 4, !tbaa !42
  %84 = icmp slt i32 %80, %83
  br i1 %84, label %85, label %101

85:                                               ; preds = %79
  %86 = load ptr, ptr %9, align 8, !tbaa !51
  %87 = load ptr, ptr %6, align 8, !tbaa !49
  %88 = load i32, ptr %10, align 4, !tbaa !38
  %89 = sext i32 %88 to i64
  %90 = getelementptr inbounds ptr, ptr %87, i64 %89
  %91 = load ptr, ptr %90, align 8, !tbaa !57
  %92 = getelementptr inbounds nuw %struct.AVFilterFormatsConfig, ptr %91, i32 0, i32 0
  %93 = call i32 @ff_formats_ref(ptr noundef %86, ptr noundef %92)
  store i32 %93, ptr %11, align 4, !tbaa !38
  %94 = icmp slt i32 %93, 0
  br i1 %94, label %95, label %97

95:                                               ; preds = %85
  %96 = load i32, ptr %11, align 4, !tbaa !38
  store i32 %96, ptr %4, align 4
  store i32 1, ptr %13, align 4
  br label %119

97:                                               ; preds = %85
  br label %98

98:                                               ; preds = %97
  %99 = load i32, ptr %10, align 4, !tbaa !38
  %100 = add nsw i32 %99, 1
  store i32 %100, ptr %10, align 4, !tbaa !38
  br label %79, !llvm.loop !59

101:                                              ; preds = %79
  store ptr null, ptr %9, align 8, !tbaa !51
  %102 = load ptr, ptr %8, align 8, !tbaa !22
  %103 = getelementptr inbounds nuw %struct.MergePlanesContext, ptr %102, i32 0, i32 2
  %104 = load i32, ptr %103, align 8, !tbaa !32
  %105 = sext i32 %104 to i64
  %106 = call i32 @ff_add_format(ptr noundef %9, i64 noundef %105)
  store i32 %106, ptr %11, align 4, !tbaa !38
  %107 = icmp slt i32 %106, 0
  br i1 %107, label %116, label %108

108:                                              ; preds = %101
  %109 = load ptr, ptr %9, align 8, !tbaa !51
  %110 = load ptr, ptr %7, align 8, !tbaa !49
  %111 = getelementptr inbounds ptr, ptr %110, i64 0
  %112 = load ptr, ptr %111, align 8, !tbaa !57
  %113 = getelementptr inbounds nuw %struct.AVFilterFormatsConfig, ptr %112, i32 0, i32 0
  %114 = call i32 @ff_formats_ref(ptr noundef %109, ptr noundef %113)
  store i32 %114, ptr %11, align 4, !tbaa !38
  %115 = icmp slt i32 %114, 0
  br i1 %115, label %116, label %118

116:                                              ; preds = %108, %101
  %117 = load i32, ptr %11, align 4, !tbaa !38
  store i32 %117, ptr %4, align 4
  store i32 1, ptr %13, align 4
  br label %119

118:                                              ; preds = %108
  store i32 0, ptr %4, align 4
  store i32 1, ptr %13, align 4
  br label %119

119:                                              ; preds = %118, %116, %95, %72
  call void @llvm.lifetime.end.p0(i64 4, ptr %11) #10
  call void @llvm.lifetime.end.p0(i64 4, ptr %10) #10
  call void @llvm.lifetime.end.p0(i64 8, ptr %9) #10
  call void @llvm.lifetime.end.p0(i64 8, ptr %8) #10
  %120 = load i32, ptr %4, align 4
  ret i32 %120
}