; Function Attrs: nounwind uwtable
define internal range(i32 -2147483648, 1) i32 @query_formats(ptr noundef readonly captures(none) %0, ptr noundef readonly captures(none) %1, ptr noundef readonly captures(none) %2) #1 {
  %4 = alloca ptr, align 8
  %5 = getelementptr inbounds nuw i8, ptr %0, i64 72
  %6 = load ptr, ptr %5, align 8, !tbaa !4
  call void @llvm.lifetime.start.p0(i64 8, ptr nonnull %4) #8
  store ptr null, ptr %4, align 8, !tbaa !43
  %7 = tail call ptr @av_pix_fmt_desc_get(i32 noundef 0) #8
  %.not37 = icmp eq ptr %7, null
  br i1 %.not37, label %.preheader, label %.lr.ph

.lr.ph:                                           ; preds = %3
  %8 = getelementptr inbounds nuw i8, ptr %6, i64 128
  br label %12

.preheader:                                       ; preds = %40, %3
  %9 = getelementptr inbounds nuw i8, ptr %6, i64 20
  %10 = load i32, ptr %9, align 4, !tbaa !34
  %11 = icmp sgt i32 %10, 0
  br i1 %11, label %.lr.ph40, label %._crit_edge

12:                                               ; preds = %.lr.ph, %40
  %indvars.iv = phi i64 [ 0, %.lr.ph ], [ %indvars.iv.next, %40 ]
  %13 = trunc nuw nsw i64 %indvars.iv to i32
  %14 = call ptr @av_pix_fmt_desc_get(i32 noundef %13) #8
  %15 = getelementptr inbounds nuw i8, ptr %14, i64 40
  %16 = load i32, ptr %15, align 8, !tbaa !45
  %17 = load ptr, ptr %8, align 8, !tbaa !29
  %18 = getelementptr inbounds nuw i8, ptr %17, i64 40
  %19 = load i32, ptr %18, align 8, !tbaa !45
  %20 = icmp eq i32 %16, %19
  br i1 %20, label %21, label %40

21:                                               ; preds = %12
  %22 = icmp slt i32 %16, 9
  br i1 %22, label %31, label %23

23:                                               ; preds = %21
  %24 = getelementptr inbounds nuw i8, ptr %14, i64 16
  %25 = load i64, ptr %24, align 8, !tbaa !30
  %26 = getelementptr inbounds nuw i8, ptr %17, i64 16
  %27 = load i64, ptr %26, align 8, !tbaa !30
  %28 = xor i64 %27, %25
  %29 = and i64 %28, 1
  %30 = icmp eq i64 %29, 0
  br i1 %30, label %31, label %40

31:                                               ; preds = %23, %21
  %32 = call i32 @av_pix_fmt_count_planes(i32 noundef %13) #8
  %33 = getelementptr inbounds nuw i8, ptr %14, i64 8
  %34 = load i8, ptr %33, align 8, !tbaa !32
  %35 = zext i8 %34 to i32
  %36 = icmp eq i32 %32, %35
  br i1 %36, label %37, label %40

37:                                               ; preds = %31
  %38 = call i32 @ff_add_format(ptr noundef nonnull %4, i64 noundef %indvars.iv) #8
  %39 = icmp slt i32 %38, 0
  br i1 %39, label %.loopexit, label %40

40:                                               ; preds = %12, %23, %31, %37
  %indvars.iv.next = add nuw nsw i64 %indvars.iv, 1
  %41 = trunc nuw i64 %indvars.iv.next to i32
  %42 = call ptr @av_pix_fmt_desc_get(i32 noundef %41) #8
  %.not = icmp eq ptr %42, null
  br i1 %.not, label %.preheader, label %12, !llvm.loop !47

43:                                               ; preds = %.lr.ph40
  %indvars.iv.next46 = add nuw nsw i64 %indvars.iv45, 1
  %44 = load i32, ptr %9, align 4, !tbaa !34
  %45 = sext i32 %44 to i64
  %46 = icmp slt i64 %indvars.iv.next46, %45
  br i1 %46, label %.lr.ph40, label %._crit_edge, !llvm.loop !48

.lr.ph40:                                         ; preds = %.preheader, %43
  %indvars.iv45 = phi i64 [ %indvars.iv.next46, %43 ], [ 0, %.preheader ]
  %47 = load ptr, ptr %4, align 8, !tbaa !43
  %48 = getelementptr inbounds nuw ptr, ptr %1, i64 %indvars.iv45
  %49 = load ptr, ptr %48, align 8, !tbaa !49
  %50 = call i32 @ff_formats_ref(ptr noundef %47, ptr noundef %49) #8
  %51 = icmp slt i32 %50, 0
  br i1 %51, label %.loopexit, label %43

._crit_edge:                                      ; preds = %43, %.preheader
  store ptr null, ptr %4, align 8, !tbaa !43
  %52 = getelementptr inbounds nuw i8, ptr %6, i64 16
  %53 = load i32, ptr %52, align 8, !tbaa !28
  %54 = sext i32 %53 to i64
  %55 = call i32 @ff_add_format(ptr noundef nonnull %4, i64 noundef %54) #8
  %56 = icmp slt i32 %55, 0
  br i1 %56, label %.loopexit, label %57

57:                                               ; preds = %._crit_edge
  %58 = load ptr, ptr %4, align 8, !tbaa !43
  %59 = load ptr, ptr %2, align 8, !tbaa !49
  %60 = call i32 @ff_formats_ref(ptr noundef %58, ptr noundef %59) #8
  %spec.select = call i32 @llvm.smin.i32(i32 %60, i32 0)
  br label %.loopexit

.loopexit:                                        ; preds = %37, %.lr.ph40, %57, %._crit_edge
  %.2 = phi i32 [ %55, %._crit_edge ], [ %spec.select, %57 ], [ %50, %.lr.ph40 ], [ %38, %37 ]
  call void @llvm.lifetime.end.p0(i64 8, ptr nonnull %4) #8
  ret i32 %.2
}